(dp0
ccopy_reg
_reconstructor
p1
(cfuture.types.newstr
newstr
p2
c__builtin__
unicode
p3
Vprocess
p4
tp5
Rp6
g1
(cevents
HepMCEvents
p7
c__builtin__
dict
p8
(dp9
tp10
Rp11
(dp12
S'fritz_config_file'
p13
g1
(g2
g3
V/home/aegis/Research/HEPTools/CheckMATE_v5/checkmate2-master/results/pp2eebar_13TeV_hepmc/fritz/process.ini
p14
tp15
Rp16
sS'maxEvents'
p17
I-1
sS'analysis_result_files'
p18
(dp19
sS'result_output_file'
p20
g1
(g2
g3
V/home/aegis/Research/HEPTools/CheckMATE_v5/checkmate2-master/results/pp2eebar_13TeV_hepmc/evaluation/process_eventsResults.txt
p21
tp22
Rp23
sS'analysis_cutflow_files'
p24
(dp25
S'atlas_2004_10894'
p26
g1
(g2
g3
V/home/aegis/Research/HEPTools/CheckMATE_v5/checkmate2-master/results/pp2eebar_13TeV_hepmc/analysis/process_atlas_2004_10894_cutflow.dat
p27
tp28
Rp29
sS'atlas_1609_01599'
p30
g1
(g2
g3
V/home/aegis/Research/HEPTools/CheckMATE_v5/checkmate2-master/results/pp2eebar_13TeV_hepmc/analysis/process_atlas_1609_01599_cutflow.dat
p31
tp32
Rp33
sS'atlas_conf_2016_076'
p34
g1
(g2
g3
V/home/aegis/Research/HEPTools/CheckMATE_v5/checkmate2-master/results/pp2eebar_13TeV_hepmc/analysis/process_atlas_conf_2016_076_cutflow.dat
p35
tp36
Rp37
sS'atlas_1708_07875'
p38
g1
(g2
g3
V/home/aegis/Research/HEPTools/CheckMATE_v5/checkmate2-master/results/pp2eebar_13TeV_hepmc/analysis/process_atlas_1708_07875_cutflow.dat
p39
tp40
Rp41
sS'atlas_2101_01629'
p42
g1
(g2
g3
V/home/aegis/Research/HEPTools/CheckMATE_v5/checkmate2-master/results/pp2eebar_13TeV_hepmc/analysis/process_atlas_2101_01629_cutflow.dat
p43
tp44
Rp45
sS'atlas_conf_2016_054'
p46
g1
(g2
g3
V/home/aegis/Research/HEPTools/CheckMATE_v5/checkmate2-master/results/pp2eebar_13TeV_hepmc/analysis/process_atlas_conf_2016_054_cutflow.dat
p47
tp48
Rp49
sS'cms_sus_16_048'
p50
g1
(g2
g3
V/home/aegis/Research/HEPTools/CheckMATE_v5/checkmate2-master/results/pp2eebar_13TeV_hepmc/analysis/process_cms_sus_16_048_cutflow.dat
p51
tp52
Rp53
sS'atlas_conf_2016_013'
p54
g1
(g2
g3
V/home/aegis/Research/HEPTools/CheckMATE_v5/checkmate2-master/results/pp2eebar_13TeV_hepmc/analysis/process_atlas_conf_2016_013_cutflow.dat
p55
tp56
Rp57
sS'atlas_2103_11684'
p58
g1
(g2
g3
V/home/aegis/Research/HEPTools/CheckMATE_v5/checkmate2-master/results/pp2eebar_13TeV_hepmc/analysis/process_atlas_2103_11684_cutflow.dat
p59
tp60
Rp61
sS'cms_sus_16_025'
p62
g1
(g2
g3
V/home/aegis/Research/HEPTools/CheckMATE_v5/checkmate2-master/results/pp2eebar_13TeV_hepmc/analysis/process_cms_sus_16_025_cutflow.dat
p63
tp64
Rp65
sS'atlas_2106_09609'
p66
g1
(g2
g3
V/home/aegis/Research/HEPTools/CheckMATE_v5/checkmate2-master/results/pp2eebar_13TeV_hepmc/analysis/process_atlas_2106_09609_cutflow.dat
p67
tp68
Rp69
sS'atlas_1712_02332'
p70
g1
(g2
g3
V/home/aegis/Research/HEPTools/CheckMATE_v5/checkmate2-master/results/pp2eebar_13TeV_hepmc/analysis/process_atlas_1712_02332_cutflow.dat
p71
tp72
Rp73
sS'atlas_conf_2017_060'
p74
g1
(g2
g3
V/home/aegis/Research/HEPTools/CheckMATE_v5/checkmate2-master/results/pp2eebar_13TeV_hepmc/analysis/process_atlas_conf_2017_060_cutflow.dat
p75
tp76
Rp77
sS'atlas_1803_02762'
p78
g1
(g2
g3
V/home/aegis/Research/HEPTools/CheckMATE_v5/checkmate2-master/results/pp2eebar_13TeV_hepmc/analysis/process_atlas_1803_02762_cutflow.dat
p79
tp80
Rp81
sS'atlas_conf_2015_082'
p82
g1
(g2
g3
V/home/aegis/Research/HEPTools/CheckMATE_v5/checkmate2-master/results/pp2eebar_13TeV_hepmc/analysis/process_atlas_conf_2015_082_cutflow.dat
p83
tp84
Rp85
sS'atlas_1802_03158'
p86
g1
(g2
g3
V/home/aegis/Research/HEPTools/CheckMATE_v5/checkmate2-master/results/pp2eebar_13TeV_hepmc/analysis/process_atlas_1802_03158_cutflow.dat
p87
tp88
Rp89
sS'atlas_conf_2016_096'
p90
g1
(g2
g3
V/home/aegis/Research/HEPTools/CheckMATE_v5/checkmate2-master/results/pp2eebar_13TeV_hepmc/analysis/process_atlas_conf_2016_096_cutflow.dat
p91
tp92
Rp93
sS'atlas_conf_2016_050'
p94
g1
(g2
g3
V/home/aegis/Research/HEPTools/CheckMATE_v5/checkmate2-master/results/pp2eebar_13TeV_hepmc/analysis/process_atlas_conf_2016_050_cutflow.dat
p95
tp96
Rp97
sS'atlas_1605_09318'
p98
g1
(g2
g3
V/home/aegis/Research/HEPTools/CheckMATE_v5/checkmate2-master/results/pp2eebar_13TeV_hepmc/analysis/process_atlas_1605_09318_cutflow.dat
p99
tp100
Rp101
sS'atlas_1909_08457'
p102
g1
(g2
g3
V/home/aegis/Research/HEPTools/CheckMATE_v5/checkmate2-master/results/pp2eebar_13TeV_hepmc/analysis/process_atlas_1909_08457_cutflow.dat
p103
tp104
Rp105
sS'atlas_1908_03122'
p106
g1
(g2
g3
V/home/aegis/Research/HEPTools/CheckMATE_v5/checkmate2-master/results/pp2eebar_13TeV_hepmc/analysis/process_atlas_1908_03122_cutflow.dat
p107
tp108
Rp109
sS'atlas_1807_07447'
p110
g1
(g2
g3
V/home/aegis/Research/HEPTools/CheckMATE_v5/checkmate2-master/results/pp2eebar_13TeV_hepmc/analysis/process_atlas_1807_07447_cutflow.dat
p111
tp112
Rp113
sS'atlas_conf_2016_066'
p114
g1
(g2
g3
V/home/aegis/Research/HEPTools/CheckMATE_v5/checkmate2-master/results/pp2eebar_13TeV_hepmc/analysis/process_atlas_conf_2016_066_cutflow.dat
p115
tp116
Rp117
sS'cms_sus_16_039'
p118
g1
(g2
g3
V/home/aegis/Research/HEPTools/CheckMATE_v5/checkmate2-master/results/pp2eebar_13TeV_hepmc/analysis/process_cms_sus_16_039_cutflow.dat
p119
tp120
Rp121
sS'atlas_conf_2019_020'
p122
g1
(g2
g3
V/home/aegis/Research/HEPTools/CheckMATE_v5/checkmate2-master/results/pp2eebar_13TeV_hepmc/analysis/process_atlas_conf_2019_020_cutflow.dat
p123
tp124
Rp125
sS'atlas_1704_03848'
p126
g1
(g2
g3
V/home/aegis/Research/HEPTools/CheckMATE_v5/checkmate2-master/results/pp2eebar_13TeV_hepmc/analysis/process_atlas_1704_03848_cutflow.dat
p127
tp128
Rp129
sS'atlas_2010_14293'
p130
g1
(g2
g3
V/home/aegis/Research/HEPTools/CheckMATE_v5/checkmate2-master/results/pp2eebar_13TeV_hepmc/analysis/process_atlas_2010_14293_cutflow.dat
p131
tp132
Rp133
sS'atlas_1911_06660'
p134
g1
(g2
g3
V/home/aegis/Research/HEPTools/CheckMATE_v5/checkmate2-master/results/pp2eebar_13TeV_hepmc/analysis/process_atlas_1911_06660_cutflow.dat
p135
tp136
Rp137
sS'cms_pas_sus_15_011'
p138
g1
(g2
g3
V/home/aegis/Research/HEPTools/CheckMATE_v5/checkmate2-master/results/pp2eebar_13TeV_hepmc/analysis/process_cms_pas_sus_15_011_cutflow.dat
p139
tp140
Rp141
sS'atlas_1604_01306'
p142
g1
(g2
g3
V/home/aegis/Research/HEPTools/CheckMATE_v5/checkmate2-master/results/pp2eebar_13TeV_hepmc/analysis/process_atlas_1604_01306_cutflow.dat
p143
tp144
Rp145
sS'atlas_2004_14060'
p146
g1
(g2
g3
V/home/aegis/Research/HEPTools/CheckMATE_v5/checkmate2-master/results/pp2eebar_13TeV_hepmc/analysis/process_atlas_2004_14060_cutflow.dat
p147
tp148
Rp149
sS'atlas_1911_12606'
p150
g1
(g2
g3
V/home/aegis/Research/HEPTools/CheckMATE_v5/checkmate2-master/results/pp2eebar_13TeV_hepmc/analysis/process_atlas_1911_12606_cutflow.dat
p151
tp152
Rp153
sS'atlas_1908_08215'
p154
g1
(g2
g3
V/home/aegis/Research/HEPTools/CheckMATE_v5/checkmate2-master/results/pp2eebar_13TeV_hepmc/analysis/process_atlas_1908_08215_cutflow.dat
p155
tp156
Rp157
sS'atlas_conf_2020_048'
p158
g1
(g2
g3
V/home/aegis/Research/HEPTools/CheckMATE_v5/checkmate2-master/results/pp2eebar_13TeV_hepmc/analysis/process_atlas_conf_2020_048_cutflow.dat
p159
tp160
Rp161
sS'atlas_2211_08028'
p162
g1
(g2
g3
V/home/aegis/Research/HEPTools/CheckMATE_v5/checkmate2-master/results/pp2eebar_13TeV_hepmc/analysis/process_atlas_2211_08028_cutflow.dat
p163
tp164
Rp165
sS'atlas_1706_03731'
p166
g1
(g2
g3
V/home/aegis/Research/HEPTools/CheckMATE_v5/checkmate2-master/results/pp2eebar_13TeV_hepmc/analysis/process_atlas_1706_03731_cutflow.dat
p167
tp168
Rp169
sS'atlas_1709_04183'
p170
g1
(g2
g3
V/home/aegis/Research/HEPTools/CheckMATE_v5/checkmate2-master/results/pp2eebar_13TeV_hepmc/analysis/process_atlas_1709_04183_cutflow.dat
p171
tp172
Rp173
sS'atlas_1712_08119'
p174
g1
(g2
g3
V/home/aegis/Research/HEPTools/CheckMATE_v5/checkmate2-master/results/pp2eebar_13TeV_hepmc/analysis/process_atlas_1712_08119_cutflow.dat
p175
tp176
Rp177
ssS'analysis_signal_files'
p178
(dp179
g26
g1
(g2
g3
V/home/aegis/Research/HEPTools/CheckMATE_v5/checkmate2-master/results/pp2eebar_13TeV_hepmc/analysis/process_atlas_2004_10894_signal.dat
p180
tp181
Rp182
sg30
g1
(g2
g3
V/home/aegis/Research/HEPTools/CheckMATE_v5/checkmate2-master/results/pp2eebar_13TeV_hepmc/analysis/process_atlas_1609_01599_signal.dat
p183
tp184
Rp185
sg34
g1
(g2
g3
V/home/aegis/Research/HEPTools/CheckMATE_v5/checkmate2-master/results/pp2eebar_13TeV_hepmc/analysis/process_atlas_conf_2016_076_signal.dat
p186
tp187
Rp188
sg38
g1
(g2
g3
V/home/aegis/Research/HEPTools/CheckMATE_v5/checkmate2-master/results/pp2eebar_13TeV_hepmc/analysis/process_atlas_1708_07875_signal.dat
p189
tp190
Rp191
sg42
g1
(g2
g3
V/home/aegis/Research/HEPTools/CheckMATE_v5/checkmate2-master/results/pp2eebar_13TeV_hepmc/analysis/process_atlas_2101_01629_signal.dat
p192
tp193
Rp194
sg46
g1
(g2
g3
V/home/aegis/Research/HEPTools/CheckMATE_v5/checkmate2-master/results/pp2eebar_13TeV_hepmc/analysis/process_atlas_conf_2016_054_signal.dat
p195
tp196
Rp197
sg50
g1
(g2
g3
V/home/aegis/Research/HEPTools/CheckMATE_v5/checkmate2-master/results/pp2eebar_13TeV_hepmc/analysis/process_cms_sus_16_048_signal.dat
p198
tp199
Rp200
sg54
g1
(g2
g3
V/home/aegis/Research/HEPTools/CheckMATE_v5/checkmate2-master/results/pp2eebar_13TeV_hepmc/analysis/process_atlas_conf_2016_013_signal.dat
p201
tp202
Rp203
sg58
g1
(g2
g3
V/home/aegis/Research/HEPTools/CheckMATE_v5/checkmate2-master/results/pp2eebar_13TeV_hepmc/analysis/process_atlas_2103_11684_signal.dat
p204
tp205
Rp206
sg62
g1
(g2
g3
V/home/aegis/Research/HEPTools/CheckMATE_v5/checkmate2-master/results/pp2eebar_13TeV_hepmc/analysis/process_cms_sus_16_025_signal.dat
p207
tp208
Rp209
sg66
g1
(g2
g3
V/home/aegis/Research/HEPTools/CheckMATE_v5/checkmate2-master/results/pp2eebar_13TeV_hepmc/analysis/process_atlas_2106_09609_signal.dat
p210
tp211
Rp212
sg70
g1
(g2
g3
V/home/aegis/Research/HEPTools/CheckMATE_v5/checkmate2-master/results/pp2eebar_13TeV_hepmc/analysis/process_atlas_1712_02332_signal.dat
p213
tp214
Rp215
sg74
g1
(g2
g3
V/home/aegis/Research/HEPTools/CheckMATE_v5/checkmate2-master/results/pp2eebar_13TeV_hepmc/analysis/process_atlas_conf_2017_060_signal.dat
p216
tp217
Rp218
sg78
g1
(g2
g3
V/home/aegis/Research/HEPTools/CheckMATE_v5/checkmate2-master/results/pp2eebar_13TeV_hepmc/analysis/process_atlas_1803_02762_signal.dat
p219
tp220
Rp221
sg82
g1
(g2
g3
V/home/aegis/Research/HEPTools/CheckMATE_v5/checkmate2-master/results/pp2eebar_13TeV_hepmc/analysis/process_atlas_conf_2015_082_signal.dat
p222
tp223
Rp224
sg86
g1
(g2
g3
V/home/aegis/Research/HEPTools/CheckMATE_v5/checkmate2-master/results/pp2eebar_13TeV_hepmc/analysis/process_atlas_1802_03158_signal.dat
p225
tp226
Rp227
sg90
g1
(g2
g3
V/home/aegis/Research/HEPTools/CheckMATE_v5/checkmate2-master/results/pp2eebar_13TeV_hepmc/analysis/process_atlas_conf_2016_096_signal.dat
p228
tp229
Rp230
sg94
g1
(g2
g3
V/home/aegis/Research/HEPTools/CheckMATE_v5/checkmate2-master/results/pp2eebar_13TeV_hepmc/analysis/process_atlas_conf_2016_050_signal.dat
p231
tp232
Rp233
sg98
g1
(g2
g3
V/home/aegis/Research/HEPTools/CheckMATE_v5/checkmate2-master/results/pp2eebar_13TeV_hepmc/analysis/process_atlas_1605_09318_signal.dat
p234
tp235
Rp236
sg102
g1
(g2
g3
V/home/aegis/Research/HEPTools/CheckMATE_v5/checkmate2-master/results/pp2eebar_13TeV_hepmc/analysis/process_atlas_1909_08457_signal.dat
p237
tp238
Rp239
sg106
g1
(g2
g3
V/home/aegis/Research/HEPTools/CheckMATE_v5/checkmate2-master/results/pp2eebar_13TeV_hepmc/analysis/process_atlas_1908_03122_signal.dat
p240
tp241
Rp242
sg110
g1
(g2
g3
V/home/aegis/Research/HEPTools/CheckMATE_v5/checkmate2-master/results/pp2eebar_13TeV_hepmc/analysis/process_atlas_1807_07447_signal.dat
p243
tp244
Rp245
sg114
g1
(g2
g3
V/home/aegis/Research/HEPTools/CheckMATE_v5/checkmate2-master/results/pp2eebar_13TeV_hepmc/analysis/process_atlas_conf_2016_066_signal.dat
p246
tp247
Rp248
sg118
g1
(g2
g3
V/home/aegis/Research/HEPTools/CheckMATE_v5/checkmate2-master/results/pp2eebar_13TeV_hepmc/analysis/process_cms_sus_16_039_signal.dat
p249
tp250
Rp251
sg122
g1
(g2
g3
V/home/aegis/Research/HEPTools/CheckMATE_v5/checkmate2-master/results/pp2eebar_13TeV_hepmc/analysis/process_atlas_conf_2019_020_signal.dat
p252
tp253
Rp254
sg126
g1
(g2
g3
V/home/aegis/Research/HEPTools/CheckMATE_v5/checkmate2-master/results/pp2eebar_13TeV_hepmc/analysis/process_atlas_1704_03848_signal.dat
p255
tp256
Rp257
sg130
g1
(g2
g3
V/home/aegis/Research/HEPTools/CheckMATE_v5/checkmate2-master/results/pp2eebar_13TeV_hepmc/analysis/process_atlas_2010_14293_signal.dat
p258
tp259
Rp260
sg134
g1
(g2
g3
V/home/aegis/Research/HEPTools/CheckMATE_v5/checkmate2-master/results/pp2eebar_13TeV_hepmc/analysis/process_atlas_1911_06660_signal.dat
p261
tp262
Rp263
sg138
g1
(g2
g3
V/home/aegis/Research/HEPTools/CheckMATE_v5/checkmate2-master/results/pp2eebar_13TeV_hepmc/analysis/process_cms_pas_sus_15_011_signal.dat
p264
tp265
Rp266
sg142
g1
(g2
g3
V/home/aegis/Research/HEPTools/CheckMATE_v5/checkmate2-master/results/pp2eebar_13TeV_hepmc/analysis/process_atlas_1604_01306_signal.dat
p267
tp268
Rp269
sg146
g1
(g2
g3
V/home/aegis/Research/HEPTools/CheckMATE_v5/checkmate2-master/results/pp2eebar_13TeV_hepmc/analysis/process_atlas_2004_14060_signal.dat
p270
tp271
Rp272
sg150
g1
(g2
g3
V/home/aegis/Research/HEPTools/CheckMATE_v5/checkmate2-master/results/pp2eebar_13TeV_hepmc/analysis/process_atlas_1911_12606_signal.dat
p273
tp274
Rp275
sg154
g1
(g2
g3
V/home/aegis/Research/HEPTools/CheckMATE_v5/checkmate2-master/results/pp2eebar_13TeV_hepmc/analysis/process_atlas_1908_08215_signal.dat
p276
tp277
Rp278
sg158
g1
(g2
g3
V/home/aegis/Research/HEPTools/CheckMATE_v5/checkmate2-master/results/pp2eebar_13TeV_hepmc/analysis/process_atlas_conf_2020_048_signal.dat
p279
tp280
Rp281
sg162
g1
(g2
g3
V/home/aegis/Research/HEPTools/CheckMATE_v5/checkmate2-master/results/pp2eebar_13TeV_hepmc/analysis/process_atlas_2211_08028_signal.dat
p282
tp283
Rp284
sg166
g1
(g2
g3
V/home/aegis/Research/HEPTools/CheckMATE_v5/checkmate2-master/results/pp2eebar_13TeV_hepmc/analysis/process_atlas_1706_03731_signal.dat
p285
tp286
Rp287
sg170
g1
(g2
g3
V/home/aegis/Research/HEPTools/CheckMATE_v5/checkmate2-master/results/pp2eebar_13TeV_hepmc/analysis/process_atlas_1709_04183_signal.dat
p288
tp289
Rp290
sg174
g1
(g2
g3
V/home/aegis/Research/HEPTools/CheckMATE_v5/checkmate2-master/results/pp2eebar_13TeV_hepmc/analysis/process_atlas_1712_08119_signal.dat
p291
tp292
Rp293
ssS'configFile'
p294
g1
(g2
g3
V/home/aegis/Research/HEPTools/CheckMATE_v5/checkmate2-master/results/pp2eebar_13TeV_hepmc/fritz/process.ini
p295
tp296
Rp297
sS'processed'
p298
I01
sS'full_filename'
p299
V/home/aegis/Research/HEPTools/pythia8.2/pythia8245/examples/pp2e-e+_full.hepmc
p300
sS'identifier'
p301
g6
sS'name'
p302
g6
sbs.