(dp0
S'procList'
p1
S"(lp0\nccopy_reg\n_reconstructor\np1\n(cprocess\nProcess\np2\nc__builtin__\nobject\np3\nNtp4\nRp5\n(dp6\nS'kfac'\np7\nF0.0\nsS'xerr_unit'\np8\ng1\n(cfuture.types.newstr\nnewstr\np9\nc__builtin__\nunicode\np10\nVpb\np11\ntp12\nRp13\nsS'result_output_file'\np14\ng1\n(g9\ng10\nV/home/aegis/Research/HEPTools/CheckMATE_v5/checkmate2-master/results/pp2eebar_13TeV_hepmc/evaluation/process_processResults.txt\np15\ntp16\nRp17\nsS'name'\np18\ng1\n(g9\ng10\nVprocess\np19\ntp20\nRp21\nsS'xerr'\np22\nF1.9\nsS'ecm'\np23\nV13.0\np24\nsS'have_kfac'\np25\nI00\nsS'have_xerr'\np26\nI01\nsS'have_xsect'\np27\nI01\nsS'xsec_unit'\np28\ng1\n(g9\ng10\nVpb\np29\ntp30\nRp31\nsS'xsec'\np32\nF844.1\nsS'eventsList'\np33\n(lp34\ng1\n(cevents\nHepMCEvents\np35\nc__builtin__\ndict\np36\n(dp37\ntp38\nRp39\n(dp40\nS'fritz_config_file'\np41\ng1\n(g9\ng10\nV/home/aegis/Research/HEPTools/CheckMATE_v5/checkmate2-master/results/pp2eebar_13TeV_hepmc/fritz/process.ini\np42\ntp43\nRp44\nsS'maxEvents'\np45\nI-1\nsS'analysis_result_files'\np46\n(dp47\nsg14\ng1\n(g9\ng10\nV/home/aegis/Research/HEPTools/CheckMATE_v5/checkmate2-master/results/pp2eebar_13TeV_hepmc/evaluation/process_eventsResults.txt\np48\ntp49\nRp50\nsS'analysis_cutflow_files'\np51\n(dp52\nS'atlas_2004_10894'\np53\ng1\n(g9\ng10\nV/home/aegis/Research/HEPTools/CheckMATE_v5/checkmate2-master/results/pp2eebar_13TeV_hepmc/analysis/process_atlas_2004_10894_cutflow.dat\np54\ntp55\nRp56\nsS'atlas_1609_01599'\np57\ng1\n(g9\ng10\nV/home/aegis/Research/HEPTools/CheckMATE_v5/checkmate2-master/results/pp2eebar_13TeV_hepmc/analysis/process_atlas_1609_01599_cutflow.dat\np58\ntp59\nRp60\nsS'atlas_conf_2016_076'\np61\ng1\n(g9\ng10\nV/home/aegis/Research/HEPTools/CheckMATE_v5/checkmate2-master/results/pp2eebar_13TeV_hepmc/analysis/process_atlas_conf_2016_076_cutflow.dat\np62\ntp63\nRp64\nsS'atlas_1708_07875'\np65\ng1\n(g9\ng10\nV/home/aegis/Research/HEPTools/CheckMATE_v5/checkmate2-master/results/pp2eebar_13TeV_hepmc/analysis/process_atlas_1708_07875_cutflow.dat\np66\ntp67\nRp68\nsS'atlas_2101_01629'\np69\ng1\n(g9\ng10\nV/home/aegis/Research/HEPTools/CheckMATE_v5/checkmate2-master/results/pp2eebar_13TeV_hepmc/analysis/process_atlas_2101_01629_cutflow.dat\np70\ntp71\nRp72\nsS'atlas_conf_2016_054'\np73\ng1\n(g9\ng10\nV/home/aegis/Research/HEPTools/CheckMATE_v5/checkmate2-master/results/pp2eebar_13TeV_hepmc/analysis/process_atlas_conf_2016_054_cutflow.dat\np74\ntp75\nRp76\nsS'cms_sus_16_048'\np77\ng1\n(g9\ng10\nV/home/aegis/Research/HEPTools/CheckMATE_v5/checkmate2-master/results/pp2eebar_13TeV_hepmc/analysis/process_cms_sus_16_048_cutflow.dat\np78\ntp79\nRp80\nsS'atlas_conf_2016_013'\np81\ng1\n(g9\ng10\nV/home/aegis/Research/HEPTools/CheckMATE_v5/checkmate2-master/results/pp2eebar_13TeV_hepmc/analysis/process_atlas_conf_2016_013_cutflow.dat\np82\ntp83\nRp84\nsS'atlas_2103_11684'\np85\ng1\n(g9\ng10\nV/home/aegis/Research/HEPTools/CheckMATE_v5/checkmate2-master/results/pp2eebar_13TeV_hepmc/analysis/process_atlas_2103_11684_cutflow.dat\np86\ntp87\nRp88\nsS'cms_sus_16_025'\np89\ng1\n(g9\ng10\nV/home/aegis/Research/HEPTools/CheckMATE_v5/checkmate2-master/results/pp2eebar_13TeV_hepmc/analysis/process_cms_sus_16_025_cutflow.dat\np90\ntp91\nRp92\nsS'atlas_2106_09609'\np93\ng1\n(g9\ng10\nV/home/aegis/Research/HEPTools/CheckMATE_v5/checkmate2-master/results/pp2eebar_13TeV_hepmc/analysis/process_atlas_2106_09609_cutflow.dat\np94\ntp95\nRp96\nsS'atlas_1712_02332'\np97\ng1\n(g9\ng10\nV/home/aegis/Research/HEPTools/CheckMATE_v5/checkmate2-master/results/pp2eebar_13TeV_hepmc/analysis/process_atlas_1712_02332_cutflow.dat\np98\ntp99\nRp100\nsS'atlas_conf_2017_060'\np101\ng1\n(g9\ng10\nV/home/aegis/Research/HEPTools/CheckMATE_v5/checkmate2-master/results/pp2eebar_13TeV_hepmc/analysis/process_atlas_conf_2017_060_cutflow.dat\np102\ntp103\nRp104\nsS'atlas_1803_02762'\np105\ng1\n(g9\ng10\nV/home/aegis/Research/HEPTools/CheckMATE_v5/checkmate2-master/results/pp2eebar_13TeV_hepmc/analysis/process_atlas_1803_02762_cutflow.dat\np106\ntp107\nRp108\nsS'atlas_conf_2015_082'\np109\ng1\n(g9\ng10\nV/home/aegis/Research/HEPTools/CheckMATE_v5/checkmate2-master/results/pp2eebar_13TeV_hepmc/analysis/process_atlas_conf_2015_082_cutflow.dat\np110\ntp111\nRp112\nsS'atlas_1802_03158'\np113\ng1\n(g9\ng10\nV/home/aegis/Research/HEPTools/CheckMATE_v5/checkmate2-master/results/pp2eebar_13TeV_hepmc/analysis/process_atlas_1802_03158_cutflow.dat\np114\ntp115\nRp116\nsS'atlas_conf_2016_096'\np117\ng1\n(g9\ng10\nV/home/aegis/Research/HEPTools/CheckMATE_v5/checkmate2-master/results/pp2eebar_13TeV_hepmc/analysis/process_atlas_conf_2016_096_cutflow.dat\np118\ntp119\nRp120\nsS'atlas_conf_2016_050'\np121\ng1\n(g9\ng10\nV/home/aegis/Research/HEPTools/CheckMATE_v5/checkmate2-master/results/pp2eebar_13TeV_hepmc/analysis/process_atlas_conf_2016_050_cutflow.dat\np122\ntp123\nRp124\nsS'atlas_1605_09318'\np125\ng1\n(g9\ng10\nV/home/aegis/Research/HEPTools/CheckMATE_v5/checkmate2-master/results/pp2eebar_13TeV_hepmc/analysis/process_atlas_1605_09318_cutflow.dat\np126\ntp127\nRp128\nsS'atlas_1909_08457'\np129\ng1\n(g9\ng10\nV/home/aegis/Research/HEPTools/CheckMATE_v5/checkmate2-master/results/pp2eebar_13TeV_hepmc/analysis/process_atlas_1909_08457_cutflow.dat\np130\ntp131\nRp132\nsS'atlas_1908_03122'\np133\ng1\n(g9\ng10\nV/home/aegis/Research/HEPTools/CheckMATE_v5/checkmate2-master/results/pp2eebar_13TeV_hepmc/analysis/process_atlas_1908_03122_cutflow.dat\np134\ntp135\nRp136\nsS'atlas_1807_07447'\np137\ng1\n(g9\ng10\nV/home/aegis/Research/HEPTools/CheckMATE_v5/checkmate2-master/results/pp2eebar_13TeV_hepmc/analysis/process_atlas_1807_07447_cutflow.dat\np138\ntp139\nRp140\nsS'atlas_conf_2016_066'\np141\ng1\n(g9\ng10\nV/home/aegis/Research/HEPTools/CheckMATE_v5/checkmate2-master/results/pp2eebar_13TeV_hepmc/analysis/process_atlas_conf_2016_066_cutflow.dat\np142\ntp143\nRp144\nsS'cms_sus_16_039'\np145\ng1\n(g9\ng10\nV/home/aegis/Research/HEPTools/CheckMATE_v5/checkmate2-master/results/pp2eebar_13TeV_hepmc/analysis/process_cms_sus_16_039_cutflow.dat\np146\ntp147\nRp148\nsS'atlas_conf_2019_020'\np149\ng1\n(g9\ng10\nV/home/aegis/Research/HEPTools/CheckMATE_v5/checkmate2-master/results/pp2eebar_13TeV_hepmc/analysis/process_atlas_conf_2019_020_cutflow.dat\np150\ntp151\nRp152\nsS'atlas_1704_03848'\np153\ng1\n(g9\ng10\nV/home/aegis/Research/HEPTools/CheckMATE_v5/checkmate2-master/results/pp2eebar_13TeV_hepmc/analysis/process_atlas_1704_03848_cutflow.dat\np154\ntp155\nRp156\nsS'atlas_2010_14293'\np157\ng1\n(g9\ng10\nV/home/aegis/Research/HEPTools/CheckMATE_v5/checkmate2-master/results/pp2eebar_13TeV_hepmc/analysis/process_atlas_2010_14293_cutflow.dat\np158\ntp159\nRp160\nsS'atlas_1911_06660'\np161\ng1\n(g9\ng10\nV/home/aegis/Research/HEPTools/CheckMATE_v5/checkmate2-master/results/pp2eebar_13TeV_hepmc/analysis/process_atlas_1911_06660_cutflow.dat\np162\ntp163\nRp164\nsS'cms_pas_sus_15_011'\np165\ng1\n(g9\ng10\nV/home/aegis/Research/HEPTools/CheckMATE_v5/checkmate2-master/results/pp2eebar_13TeV_hepmc/analysis/process_cms_pas_sus_15_011_cutflow.dat\np166\ntp167\nRp168\nsS'atlas_1604_01306'\np169\ng1\n(g9\ng10\nV/home/aegis/Research/HEPTools/CheckMATE_v5/checkmate2-master/results/pp2eebar_13TeV_hepmc/analysis/process_atlas_1604_01306_cutflow.dat\np170\ntp171\nRp172\nsS'atlas_2004_14060'\np173\ng1\n(g9\ng10\nV/home/aegis/Research/HEPTools/CheckMATE_v5/checkmate2-master/results/pp2eebar_13TeV_hepmc/analysis/process_atlas_2004_14060_cutflow.dat\np174\ntp175\nRp176\nsS'atlas_1911_12606'\np177\ng1\n(g9\ng10\nV/home/aegis/Research/HEPTools/CheckMATE_v5/checkmate2-master/results/pp2eebar_13TeV_hepmc/analysis/process_atlas_1911_12606_cutflow.dat\np178\ntp179\nRp180\nsS'atlas_1908_08215'\np181\ng1\n(g9\ng10\nV/home/aegis/Research/HEPTools/CheckMATE_v5/checkmate2-master/results/pp2eebar_13TeV_hepmc/analysis/process_atlas_1908_08215_cutflow.dat\np182\ntp183\nRp184\nsS'atlas_conf_2020_048'\np185\ng1\n(g9\ng10\nV/home/aegis/Research/HEPTools/CheckMATE_v5/checkmate2-master/results/pp2eebar_13TeV_hepmc/analysis/process_atlas_conf_2020_048_cutflow.dat\np186\ntp187\nRp188\nsS'atlas_2211_08028'\np189\ng1\n(g9\ng10\nV/home/aegis/Research/HEPTools/CheckMATE_v5/checkmate2-master/results/pp2eebar_13TeV_hepmc/analysis/process_atlas_2211_08028_cutflow.dat\np190\ntp191\nRp192\nsS'atlas_1706_03731'\np193\ng1\n(g9\ng10\nV/home/aegis/Research/HEPTools/CheckMATE_v5/checkmate2-master/results/pp2eebar_13TeV_hepmc/analysis/process_atlas_1706_03731_cutflow.dat\np194\ntp195\nRp196\nsS'atlas_1709_04183'\np197\ng1\n(g9\ng10\nV/home/aegis/Research/HEPTools/CheckMATE_v5/checkmate2-master/results/pp2eebar_13TeV_hepmc/analysis/process_atlas_1709_04183_cutflow.dat\np198\ntp199\nRp200\nsS'atlas_1712_08119'\np201\ng1\n(g9\ng10\nV/home/aegis/Research/HEPTools/CheckMATE_v5/checkmate2-master/results/pp2eebar_13TeV_hepmc/analysis/process_atlas_1712_08119_cutflow.dat\np202\ntp203\nRp204\nssS'analysis_signal_files'\np205\n(dp206\ng53\ng1\n(g9\ng10\nV/home/aegis/Research/HEPTools/CheckMATE_v5/checkmate2-master/results/pp2eebar_13TeV_hepmc/analysis/process_atlas_2004_10894_signal.dat\np207\ntp208\nRp209\nsg57\ng1\n(g9\ng10\nV/home/aegis/Research/HEPTools/CheckMATE_v5/checkmate2-master/results/pp2eebar_13TeV_hepmc/analysis/process_atlas_1609_01599_signal.dat\np210\ntp211\nRp212\nsg61\ng1\n(g9\ng10\nV/home/aegis/Research/HEPTools/CheckMATE_v5/checkmate2-master/results/pp2eebar_13TeV_hepmc/analysis/process_atlas_conf_2016_076_signal.dat\np213\ntp214\nRp215\nsg65\ng1\n(g9\ng10\nV/home/aegis/Research/HEPTools/CheckMATE_v5/checkmate2-master/results/pp2eebar_13TeV_hepmc/analysis/process_atlas_1708_07875_signal.dat\np216\ntp217\nRp218\nsg69\ng1\n(g9\ng10\nV/home/aegis/Research/HEPTools/CheckMATE_v5/checkmate2-master/results/pp2eebar_13TeV_hepmc/analysis/process_atlas_2101_01629_signal.dat\np219\ntp220\nRp221\nsg73\ng1\n(g9\ng10\nV/home/aegis/Research/HEPTools/CheckMATE_v5/checkmate2-master/results/pp2eebar_13TeV_hepmc/analysis/process_atlas_conf_2016_054_signal.dat\np222\ntp223\nRp224\nsg77\ng1\n(g9\ng10\nV/home/aegis/Research/HEPTools/CheckMATE_v5/checkmate2-master/results/pp2eebar_13TeV_hepmc/analysis/process_cms_sus_16_048_signal.dat\np225\ntp226\nRp227\nsg81\ng1\n(g9\ng10\nV/home/aegis/Research/HEPTools/CheckMATE_v5/checkmate2-master/results/pp2eebar_13TeV_hepmc/analysis/process_atlas_conf_2016_013_signal.dat\np228\ntp229\nRp230\nsg85\ng1\n(g9\ng10\nV/home/aegis/Research/HEPTools/CheckMATE_v5/checkmate2-master/results/pp2eebar_13TeV_hepmc/analysis/process_atlas_2103_11684_signal.dat\np231\ntp232\nRp233\nsg89\ng1\n(g9\ng10\nV/home/aegis/Research/HEPTools/CheckMATE_v5/checkmate2-master/results/pp2eebar_13TeV_hepmc/analysis/process_cms_sus_16_025_signal.dat\np234\ntp235\nRp236\nsg93\ng1\n(g9\ng10\nV/home/aegis/Research/HEPTools/CheckMATE_v5/checkmate2-master/results/pp2eebar_13TeV_hepmc/analysis/process_atlas_2106_09609_signal.dat\np237\ntp238\nRp239\nsg97\ng1\n(g9\ng10\nV/home/aegis/Research/HEPTools/CheckMATE_v5/checkmate2-master/results/pp2eebar_13TeV_hepmc/analysis/process_atlas_1712_02332_signal.dat\np240\ntp241\nRp242\nsg101\ng1\n(g9\ng10\nV/home/aegis/Research/HEPTools/CheckMATE_v5/checkmate2-master/results/pp2eebar_13TeV_hepmc/analysis/process_atlas_conf_2017_060_signal.dat\np243\ntp244\nRp245\nsg105\ng1\n(g9\ng10\nV/home/aegis/Research/HEPTools/CheckMATE_v5/checkmate2-master/results/pp2eebar_13TeV_hepmc/analysis/process_atlas_1803_02762_signal.dat\np246\ntp247\nRp248\nsg109\ng1\n(g9\ng10\nV/home/aegis/Research/HEPTools/CheckMATE_v5/checkmate2-master/results/pp2eebar_13TeV_hepmc/analysis/process_atlas_conf_2015_082_signal.dat\np249\ntp250\nRp251\nsg113\ng1\n(g9\ng10\nV/home/aegis/Research/HEPTools/CheckMATE_v5/checkmate2-master/results/pp2eebar_13TeV_hepmc/analysis/process_atlas_1802_03158_signal.dat\np252\ntp253\nRp254\nsg117\ng1\n(g9\ng10\nV/home/aegis/Research/HEPTools/CheckMATE_v5/checkmate2-master/results/pp2eebar_13TeV_hepmc/analysis/process_atlas_conf_2016_096_signal.dat\np255\ntp256\nRp257\nsg121\ng1\n(g9\ng10\nV/home/aegis/Research/HEPTools/CheckMATE_v5/checkmate2-master/results/pp2eebar_13TeV_hepmc/analysis/process_atlas_conf_2016_050_signal.dat\np258\ntp259\nRp260\nsg125\ng1\n(g9\ng10\nV/home/aegis/Research/HEPTools/CheckMATE_v5/checkmate2-master/results/pp2eebar_13TeV_hepmc/analysis/process_atlas_1605_09318_signal.dat\np261\ntp262\nRp263\nsg129\ng1\n(g9\ng10\nV/home/aegis/Research/HEPTools/CheckMATE_v5/checkmate2-master/results/pp2eebar_13TeV_hepmc/analysis/process_atlas_1909_08457_signal.dat\np264\ntp265\nRp266\nsg133\ng1\n(g9\ng10\nV/home/aegis/Research/HEPTools/CheckMATE_v5/checkmate2-master/results/pp2eebar_13TeV_hepmc/analysis/process_atlas_1908_03122_signal.dat\np267\ntp268\nRp269\nsg137\ng1\n(g9\ng10\nV/home/aegis/Research/HEPTools/CheckMATE_v5/checkmate2-master/results/pp2eebar_13TeV_hepmc/analysis/process_atlas_1807_07447_signal.dat\np270\ntp271\nRp272\nsg141\ng1\n(g9\ng10\nV/home/aegis/Research/HEPTools/CheckMATE_v5/checkmate2-master/results/pp2eebar_13TeV_hepmc/analysis/process_atlas_conf_2016_066_signal.dat\np273\ntp274\nRp275\nsg145\ng1\n(g9\ng10\nV/home/aegis/Research/HEPTools/CheckMATE_v5/checkmate2-master/results/pp2eebar_13TeV_hepmc/analysis/process_cms_sus_16_039_signal.dat\np276\ntp277\nRp278\nsg149\ng1\n(g9\ng10\nV/home/aegis/Research/HEPTools/CheckMATE_v5/checkmate2-master/results/pp2eebar_13TeV_hepmc/analysis/process_atlas_conf_2019_020_signal.dat\np279\ntp280\nRp281\nsg153\ng1\n(g9\ng10\nV/home/aegis/Research/HEPTools/CheckMATE_v5/checkmate2-master/results/pp2eebar_13TeV_hepmc/analysis/process_atlas_1704_03848_signal.dat\np282\ntp283\nRp284\nsg157\ng1\n(g9\ng10\nV/home/aegis/Research/HEPTools/CheckMATE_v5/checkmate2-master/results/pp2eebar_13TeV_hepmc/analysis/process_atlas_2010_14293_signal.dat\np285\ntp286\nRp287\nsg161\ng1\n(g9\ng10\nV/home/aegis/Research/HEPTools/CheckMATE_v5/checkmate2-master/results/pp2eebar_13TeV_hepmc/analysis/process_atlas_1911_06660_signal.dat\np288\ntp289\nRp290\nsg165\ng1\n(g9\ng10\nV/home/aegis/Research/HEPTools/CheckMATE_v5/checkmate2-master/results/pp2eebar_13TeV_hepmc/analysis/process_cms_pas_sus_15_011_signal.dat\np291\ntp292\nRp293\nsg169\ng1\n(g9\ng10\nV/home/aegis/Research/HEPTools/CheckMATE_v5/checkmate2-master/results/pp2eebar_13TeV_hepmc/analysis/process_atlas_1604_01306_signal.dat\np294\ntp295\nRp296\nsg173\ng1\n(g9\ng10\nV/home/aegis/Research/HEPTools/CheckMATE_v5/checkmate2-master/results/pp2eebar_13TeV_hepmc/analysis/process_atlas_2004_14060_signal.dat\np297\ntp298\nRp299\nsg177\ng1\n(g9\ng10\nV/home/aegis/Research/HEPTools/CheckMATE_v5/checkmate2-master/results/pp2eebar_13TeV_hepmc/analysis/process_atlas_1911_12606_signal.dat\np300\ntp301\nRp302\nsg181\ng1\n(g9\ng10\nV/home/aegis/Research/HEPTools/CheckMATE_v5/checkmate2-master/results/pp2eebar_13TeV_hepmc/analysis/process_atlas_1908_08215_signal.dat\np303\ntp304\nRp305\nsg185\ng1\n(g9\ng10\nV/home/aegis/Research/HEPTools/CheckMATE_v5/checkmate2-master/results/pp2eebar_13TeV_hepmc/analysis/process_atlas_conf_2020_048_signal.dat\np306\ntp307\nRp308\nsg189\ng1\n(g9\ng10\nV/home/aegis/Research/HEPTools/CheckMATE_v5/checkmate2-master/results/pp2eebar_13TeV_hepmc/analysis/process_atlas_2211_08028_signal.dat\np309\ntp310\nRp311\nsg193\ng1\n(g9\ng10\nV/home/aegis/Research/HEPTools/CheckMATE_v5/checkmate2-master/results/pp2eebar_13TeV_hepmc/analysis/process_atlas_1706_03731_signal.dat\np312\ntp313\nRp314\nsg197\ng1\n(g9\ng10\nV/home/aegis/Research/HEPTools/CheckMATE_v5/checkmate2-master/results/pp2eebar_13TeV_hepmc/analysis/process_atlas_1709_04183_signal.dat\np315\ntp316\nRp317\nsg201\ng1\n(g9\ng10\nV/home/aegis/Research/HEPTools/CheckMATE_v5/checkmate2-master/results/pp2eebar_13TeV_hepmc/analysis/process_atlas_1712_08119_signal.dat\np318\ntp319\nRp320\nssS'configFile'\np321\ng1\n(g9\ng10\nV/home/aegis/Research/HEPTools/CheckMATE_v5/checkmate2-master/results/pp2eebar_13TeV_hepmc/fritz/process.ini\np322\ntp323\nRp324\nsS'processed'\np325\nI01\nsS'full_filename'\np326\nV/home/aegis/Research/HEPTools/pythia8.2/pythia8245/examples/pp2e-e+_full.hepmc\np327\nsS'identifier'\np328\ng1\n(g9\ng10\nVprocess\np329\ntp330\nRp331\nsg18\ng331\nsbasba."
p2
s.